Certificate:
    Data:
        Version: 3 (0x2)
        Serial Number:
            d5:ae:1a:4d:89:af:be:12
    Signature Algorithm: sha256WithRSAEncryption
        Issuer: C=US, ST=Georgia, L=Norcross, O=ACI Worldwide, OU=ecommerce, CN=CA_UAT
        Validity
            Not Before: Feb 28 18:16:00 2020 GMT
            Not After : Feb 27 18:16:00 2022 GMT
        Subject: C=US, ST=Georgia, O=ACI Worldwide, OU=ecommerce, CN=americaneagletestdata20
        Subject Public Key Info:
            Public Key Algorithm: rsaEncryption
                Public-Key: (2048 bit)
                Modulus:
                    00:bf:29:87:bc:61:cc:59:75:4c:ab:a7:35:a2:8a:
                    bd:68:61:fc:e3:89:8e:52:b8:00:85:42:72:7b:74:
                    89:6e:eb:c4:33:77:cd:87:de:f7:92:49:16:99:a3:
                    5a:4d:5d:9a:e7:81:4e:0e:1f:2e:89:bc:29:d2:72:
                    3e:64:7e:98:69:8f:56:0c:0f:1d:15:bb:93:99:37:
                    80:e4:ae:95:1d:c2:6f:f0:0b:60:6d:4c:36:cf:62:
                    20:b7:e6:18:7b:b3:78:df:8f:0b:d6:16:04:d6:8b:
                    eb:d1:fe:3e:1e:b6:38:f6:6d:f1:37:1b:e0:f2:df:
                    b8:54:2d:42:72:f4:aa:44:e5:4d:a1:0a:b8:57:2b:
                    66:b5:3f:07:66:94:1c:31:63:45:97:e1:f2:ae:a0:
                    bc:29:82:33:23:8e:9a:cc:c8:48:81:c9:61:3b:d8:
                    68:de:6e:f4:db:4b:7d:94:75:26:25:a8:d1:82:dd:
                    2e:95:39:bc:0a:9e:f5:a5:5b:72:d4:09:72:ad:0e:
                    c0:7a:b3:fc:07:3a:61:d0:a6:c8:4a:9d:7d:78:d2:
                    58:c5:fc:ca:0b:98:f6:b7:aa:d0:2b:21:79:49:05:
                    de:1a:53:fa:7a:5e:49:c2:59:f4:ee:e3:c1:7b:f1:
                    b9:cc:6f:fe:9c:80:93:67:61:cb:12:95:06:d3:21:
                    a4:87
                Exponent: 65537 (0x10001)
        X509v3 extensions:
            X509v3 Basic Constraints: 
                CA:FALSE
            X509v3 Subject Key Identifier: 
                3D:96:5F:7D:F4:9E:9E:E5:3B:77:40:A3:89:D5:CA:CE:CB:0A:CC:00
            X509v3 Authority Key Identifier: 
                DirName:/C=US/ST=Georgia/L=Norcross/O=ACI Worldwide/OU=ecommerce/CN=CA_UAT
                serial:D5:AE:1A:4D:89:AF:BD:42

    Signature Algorithm: sha256WithRSAEncryption
         71:20:6b:b2:6a:38:21:2c:75:4c:01:34:b6:0f:ec:af:a3:c9:
         b6:8d:86:09:9b:72:af:8d:8b:78:52:72:b4:ad:00:9d:87:f1:
         c4:f8:e7:fc:27:22:bf:e2:d2:ce:48:23:94:71:f1:bb:eb:20:
         08:c2:1d:c0:85:32:ff:67:af:12:20:1e:00:0d:6e:76:88:58:
         94:99:03:6e:67:e2:6f:b5:03:13:2f:3a:7b:d4:1c:51:f2:af:
         45:94:b7:b3:35:8d:bb:8a:95:53:63:d9:2e:59:13:b8:ff:9f:
         37:46:b6:84:0f:e8:37:79:5f:6e:55:93:a3:88:a1:ce:12:aa:
         78:f5:15:ed:aa:a0:cc:50:e5:02:85:57:65:cc:11:7d:03:f2:
         31:6c:32:d0:64:16:82:ed:26:7d:a8:a7:25:60:8e:64:ea:d7:
         ab:df:a7:83:07:95:3f:80:a4:4f:f8:65:e6:95:e3:08:62:37:
         f5:e5:62:ce:0c:9d:52:09:fa:d0:98:16:da:7a:90:83:0b:c7:
         bd:71:04:57:fd:3e:a9:06:9d:86:52:28:87:a4:2c:8d:ca:21:
         06:8b:29:f1:91:1a:e7:fc:a8:aa:c0:f6:71:2d:e7:1b:18:32:
         68:e9:f2:50:1b:23:e9:9c:ee:7c:73:25:3b:d8:1d:6a:03:30:
         c5:8e:7d:cc
-----BEGIN CERTIFICATE-----
MIIEGzCCAwOgAwIBAgIJANWuGk2Jr74SMA0GCSqGSIb3DQEBCwUAMG8xCzAJBgNV
BAYTAlVTMRAwDgYDVQQIEwdHZW9yZ2lhMREwDwYDVQQHEwhOb3Jjcm9zczEWMBQG
A1UEChMNQUNJIFdvcmxkd2lkZTESMBAGA1UECxMJZWNvbW1lcmNlMQ8wDQYDVQQD
FAZDQV9VQVQwHhcNMjAwMjI4MTgxNjAwWhcNMjIwMjI3MTgxNjAwWjBtMQswCQYD
VQQGEwJVUzEQMA4GA1UECBMHR2VvcmdpYTEWMBQGA1UEChMNQUNJIFdvcmxkd2lk
ZTESMBAGA1UECxMJZWNvbW1lcmNlMSAwHgYDVQQDExdhbWVyaWNhbmVhZ2xldGVz
dGRhdGEyMDCCASIwDQYJKoZIhvcNAQEBBQADggEPADCCAQoCggEBAL8ph7xhzFl1
TKunNaKKvWhh/OOJjlK4AIVCcnt0iW7rxDN3zYfe95JJFpmjWk1dmueBTg4fLom8
KdJyPmR+mGmPVgwPHRW7k5k3gOSulR3Cb/ALYG1MNs9iILfmGHuzeN+PC9YWBNaL
69H+Ph62OPZt8Tcb4PLfuFQtQnL0qkTlTaEKuFcrZrU/B2aUHDFjRZfh8q6gvCmC
MyOOmszISIHJYTvYaN5u9NtLfZR1JiWo0YLdLpU5vAqe9aVbctQJcq0OwHqz/Ac6
YdCmyEqdfXjSWMX8yguY9req0CsheUkF3hpT+npeScJZ9O7jwXvxucxv/pyAk2dh
yxKVBtMhpIcCAwEAAaOBuzCBuDAJBgNVHRMEAjAAMB0GA1UdDgQWBBQ9ll999J6e
5Tt3QKOJ1crOywrMADCBiwYDVR0jBIGDMIGAoXOkcTBvMQswCQYDVQQGEwJVUzEQ
MA4GA1UECBMHR2VvcmdpYTERMA8GA1UEBxMITm9yY3Jvc3MxFjAUBgNVBAoTDUFD
SSBXb3JsZHdpZGUxEjAQBgNVBAsTCWVjb21tZXJjZTEPMA0GA1UEAxQGQ0FfVUFU
ggkA1a4aTYmvvUIwDQYJKoZIhvcNAQELBQADggEBAHEga7JqOCEsdUwBNLYP7K+j
ybaNhgmbcq+Ni3hScrStAJ2H8cT45/wnIr/i0s5II5Rx8bvrIAjCHcCFMv9nrxIg
HgANbnaIWJSZA25n4m+1AxMvOnvUHFHyr0WUt7M1jbuKlVNj2S5ZE7j/nzdGtoQP
6Dd5X25Vk6OIoc4Sqnj1Fe2qoMxQ5QKFV2XMEX0D8jFsMtBkFoLtJn2opyVgjmTq
16vfp4MHlT+ApE/4ZeaV4whiN/XlYs4MnVIJ+tCYFtp6kIMLx71xBFf9PqkGnYZS
KIekLI3KIQaLKfGRGuf8qKrA9nEt5xsYMmjp8lAbI+mc7nxzJTvYHWoDMMWOfcw=
-----END CERTIFICATE-----
