Certificate:
    Data:
        Version: 3 (0x2)
        Serial Number:
            b4:b9:7f:2c:9e:94:ba:00
    Signature Algorithm: sha256WithRSAEncryption
        Issuer: C=US, ST=Georgia, L=Norcross, O=ACI Worldwide Inc, OU=ecommerce, CN=USCA01
        Validity
            Not Before: Mar 28 06:06:52 2020 GMT
            Not After : Mar 28 06:06:52 2022 GMT
        Subject: C=US, ST=Georgia, O=ACI Worldwide Inc, OU=ecommerce, CN=americaneagleclient20
        Subject Public Key Info:
            Public Key Algorithm: rsaEncryption
                Public-Key: (2048 bit)
                Modulus:
                    00:f0:33:2f:a1:13:d7:aa:8a:13:9c:51:22:3f:91:
                    b9:f5:fe:03:fc:c1:27:a1:4a:f3:2d:26:20:6d:4e:
                    46:72:55:ea:6f:12:91:27:ea:f8:6a:10:14:a7:8f:
                    c1:df:45:0c:6a:ff:72:65:66:b6:c8:f7:9e:01:ea:
                    f3:40:26:6d:47:3c:8a:f7:28:2f:bf:d2:8b:7e:75:
                    67:78:ee:9a:fd:09:ee:08:05:db:16:52:c7:ad:ae:
                    30:9c:e3:d7:88:b3:87:dc:27:22:81:a5:6d:0d:67:
                    35:2c:83:bc:10:90:b1:7a:33:0f:20:01:2e:b4:39:
                    5c:97:20:51:b0:84:79:e5:a6:07:eb:8c:1b:a2:71:
                    01:eb:02:e3:7f:9c:1b:85:e3:de:e3:cc:bf:bf:ed:
                    12:98:32:50:4a:e2:b0:dd:60:91:fb:d7:76:c7:04:
                    87:52:5d:27:b7:bb:08:a8:cd:9c:f0:3f:b2:71:55:
                    85:cc:85:7e:30:7f:e4:9d:28:eb:01:9e:73:03:75:
                    1e:65:5b:ff:9d:57:42:c8:15:c9:44:95:54:f5:10:
                    97:81:26:72:c4:53:aa:80:8e:91:e9:26:8d:c3:fb:
                    6c:a5:28:12:d7:c4:ae:a1:41:32:3d:70:b5:26:e5:
                    1e:20:ac:08:19:c4:87:86:c9:5b:48:85:ea:59:bf:
                    f8:81
                Exponent: 65537 (0x10001)
        X509v3 extensions:
            X509v3 Basic Constraints: 
                CA:FALSE
            X509v3 Subject Key Identifier: 
                14:84:9E:22:9E:11:50:58:30:F3:6F:30:D5:C4:AD:B8:9E:1A:B6:8B
            X509v3 Authority Key Identifier: 
                DirName:/C=US/ST=Georgia/L=Norcross/O=ACI Worldwide Inc/OU=ecommerce/CN=USCA01
                serial:B4:B9:7F:2C:9E:94:B9:39

    Signature Algorithm: sha256WithRSAEncryption
         3c:c7:53:17:c3:1c:18:cf:82:92:b1:fc:4a:d6:dc:de:c4:ea:
         43:88:25:5e:26:1c:01:3f:c2:1f:d9:9e:15:0e:1a:c9:f6:cb:
         b4:54:2c:b7:51:f1:fa:c5:f4:59:00:23:62:7e:d8:53:64:00:
         63:43:3d:72:9b:01:91:b5:95:27:c0:78:8a:6a:60:03:8e:20:
         ab:a1:2e:50:af:08:13:b6:26:82:c6:90:d2:fd:1c:59:9c:73:
         93:92:13:39:d8:90:d3:68:bd:38:0d:ca:d6:af:ba:ae:54:a1:
         2b:0d:0f:52:c8:2b:77:fc:f2:f9:ca:2a:00:24:d6:f8:de:08:
         1c:99:33:00:44:03:6c:ea:11:f2:a1:ed:f1:f9:a7:78:18:79:
         b2:0e:3e:f5:1d:92:c0:58:f0:3f:22:56:f0:46:a6:a2:0a:6f:
         3f:9e:d3:c6:68:55:47:5d:2a:1a:2e:a0:91:e6:00:58:9b:ba:
         8f:f5:d6:b7:bf:e4:c5:1d:a0:06:a4:ba:5c:f1:57:05:6a:1c:
         ff:2b:31:e0:1b:7b:8b:6e:75:72:08:b7:12:a9:4d:1f:98:c9:
         d5:2f:7c:e5:a2:36:46:94:59:b7:fa:30:5b:1f:3c:e7:33:19:
         fe:9b:4d:7d:41:dd:37:98:6f:b5:02:10:11:54:b5:74:5f:d8:
         0b:48:b3:bd
-----BEGIN CERTIFICATE-----
MIIEJTCCAw2gAwIBAgIJALS5fyyelLoAMA0GCSqGSIb3DQEBCwUAMHMxCzAJBgNV
BAYTAlVTMRAwDgYDVQQIEwdHZW9yZ2lhMREwDwYDVQQHEwhOb3Jjcm9zczEaMBgG
A1UEChMRQUNJIFdvcmxkd2lkZSBJbmMxEjAQBgNVBAsTCWVjb21tZXJjZTEPMA0G
A1UEAxMGVVNDQTAxMB4XDTIwMDMyODA2MDY1MloXDTIyMDMyODA2MDY1MlowbzEL
MAkGA1UEBhMCVVMxEDAOBgNVBAgTB0dlb3JnaWExGjAYBgNVBAoTEUFDSSBXb3Js
ZHdpZGUgSW5jMRIwEAYDVQQLEwllY29tbWVyY2UxHjAcBgNVBAMTFWFtZXJpY2Fu
ZWFnbGVjbGllbnQyMDCCASIwDQYJKoZIhvcNAQEBBQADggEPADCCAQoCggEBAPAz
L6ET16qKE5xRIj+RufX+A/zBJ6FK8y0mIG1ORnJV6m8SkSfq+GoQFKePwd9FDGr/
cmVmtsj3ngHq80AmbUc8ivcoL7/Si351Z3jumv0J7ggF2xZSx62uMJzj14izh9wn
IoGlbQ1nNSyDvBCQsXozDyABLrQ5XJcgUbCEeeWmB+uMG6JxAesC43+cG4Xj3uPM
v7/tEpgyUErisN1gkfvXdscEh1JdJ7e7CKjNnPA/snFVhcyFfjB/5J0o6wGecwN1
HmVb/51XQsgVyUSVVPUQl4EmcsRTqoCOkekmjcP7bKUoEtfErqFBMj1wtSblHiCs
CBnEh4bJW0iF6lm/+IECAwEAAaOBvzCBvDAJBgNVHRMEAjAAMB0GA1UdDgQWBBQU
hJ4inhFQWDDzbzDVxK24nhq2izCBjwYDVR0jBIGHMIGEoXekdTBzMQswCQYDVQQG
EwJVUzEQMA4GA1UECBMHR2VvcmdpYTERMA8GA1UEBxMITm9yY3Jvc3MxGjAYBgNV
BAoTEUFDSSBXb3JsZHdpZGUgSW5jMRIwEAYDVQQLEwllY29tbWVyY2UxDzANBgNV
BAMTBlVTQ0EwMYIJALS5fyyelLk5MA0GCSqGSIb3DQEBCwUAA4IBAQA8x1MXwxwY
z4KSsfxK1tzexOpDiCVeJhwBP8If2Z4VDhrJ9su0VCy3UfH6xfRZACNifthTZABj
Qz1ymwGRtZUnwHiKamADjiCroS5QrwgTtiaCxpDS/RxZnHOTkhM52JDTaL04DcrW
r7quVKErDQ9SyCt3/PL5yioAJNb43ggcmTMARANs6hHyoe3x+ad4GHmyDj71HZLA
WPA/IlbwRqaiCm8/ntPGaFVHXSoaLqCR5gBYm7qP9da3v+TFHaAGpLpc8VcFahz/
KzHgG3uLbnVyCLcSqU0fmMnVL3zlojZGlFm3+jBbHzznMxn+m019Qd03mG+1AhAR
VLV0X9gLSLO9
-----END CERTIFICATE-----
