Certificate:
    Data:
        Version: 3 (0x2)
        Serial Number:
            b4:b9:7f:2c:9e:94:b9:ff
    Signature Algorithm: sha256WithRSAEncryption
        Issuer: C=US, ST=Georgia, L=Norcross, O=ACI Worldwide Inc, OU=ecommerce, CN=USCA01
        Validity
            Not Before: Mar 28 06:06:18 2020 GMT
            Not After : Mar 28 06:06:18 2022 GMT
        Subject: C=US, ST=Georgia, O=ACI Worldwide Inc, OU=ecommerce, CN=americaneagledata20
        Subject Public Key Info:
            Public Key Algorithm: rsaEncryption
                Public-Key: (2048 bit)
                Modulus:
                    00:bf:7d:35:c1:73:d4:d0:f2:c0:27:c4:36:52:6c:
                    56:14:79:72:64:8c:af:e4:e9:67:62:b3:01:ff:64:
                    9a:5a:56:a2:57:37:ca:32:ce:dc:1b:60:6d:ac:4d:
                    05:d9:25:be:15:63:fd:ee:71:c9:6d:b2:0f:c6:8b:
                    81:e8:e7:98:8a:14:32:ef:ae:d7:45:98:5e:d4:a6:
                    e0:2c:db:fc:61:b3:0d:4a:d0:0d:97:60:6c:c9:70:
                    40:ad:ea:a7:87:25:c0:49:fe:0f:cc:bc:59:84:23:
                    69:1f:09:69:8c:bf:c3:72:a3:83:ca:f1:01:a7:33:
                    ef:fd:f3:4e:49:06:2e:c4:a4:ad:2c:0c:8e:7b:e0:
                    7e:a1:be:17:21:fc:0a:a1:7c:bb:62:70:ac:a8:c8:
                    18:04:73:07:a9:2b:01:9c:91:d3:c5:cf:c6:57:26:
                    47:b8:9c:8e:d2:5a:a0:02:bf:61:ab:30:3d:a7:d0:
                    13:70:a8:4f:8c:c5:de:9f:3f:8b:ac:b1:a1:cc:95:
                    06:14:0f:fa:e2:49:15:96:fa:b1:a4:3b:6d:fb:db:
                    ad:62:e5:ed:5e:dd:68:4b:27:da:83:78:36:0d:f4:
                    96:46:12:fd:53:72:30:c0:0d:97:ac:2e:f1:95:14:
                    19:a8:9d:64:92:7d:cb:72:ad:d1:ab:0f:8e:29:0e:
                    dc:fd
                Exponent: 65537 (0x10001)
        X509v3 extensions:
            X509v3 Basic Constraints: 
                CA:FALSE
            X509v3 Subject Key Identifier: 
                7E:BA:68:A6:5F:C1:C2:71:F0:27:93:0B:3C:F8:DC:7E:CD:6A:E8:10
            X509v3 Authority Key Identifier: 
                DirName:/C=US/ST=Georgia/L=Norcross/O=ACI Worldwide Inc/OU=ecommerce/CN=USCA01
                serial:B4:B9:7F:2C:9E:94:B9:39

    Signature Algorithm: sha256WithRSAEncryption
         0e:cf:3d:14:a0:f8:ea:22:32:0a:59:5b:22:e8:38:a8:fb:04:
         f1:4d:b3:fa:44:e4:89:29:1c:1d:12:b1:86:a1:24:c8:e4:9a:
         d4:26:d0:2c:d8:53:73:89:ae:d8:2f:b9:2f:8f:f2:fc:61:5f:
         b8:11:2d:87:79:8e:e8:06:40:9b:a7:ce:51:5e:cf:65:68:a5:
         cb:f2:87:52:a9:14:19:10:cb:e7:49:d5:e1:13:b1:2a:90:55:
         b6:00:95:42:b5:d2:94:60:c2:1c:94:39:9a:82:01:9e:e0:9d:
         1f:42:2c:43:ab:2c:77:e6:c1:5d:09:19:a0:82:ba:15:74:71:
         04:46:ff:6d:60:33:f1:e3:1f:32:52:84:a4:40:39:a6:99:b1:
         80:6e:f2:38:87:38:0b:60:28:3d:2d:89:a6:e1:da:d8:20:ec:
         20:ca:1c:24:ee:89:d1:98:5f:9f:c9:78:fa:f2:c0:c8:72:9a:
         41:26:b1:6f:5b:bf:d8:e9:b2:62:dc:47:92:b9:04:81:2a:f7:
         00:d3:f4:cc:d5:36:9c:11:40:83:a2:2d:6a:95:a0:64:91:f3:
         ec:f0:a2:2f:e8:cb:2c:28:75:ee:25:58:cb:0b:64:ed:9c:f6:
         3b:20:26:e9:57:0d:79:c2:2e:75:9c:e8:85:f3:3c:72:4f:87:
         16:5e:a3:05
-----BEGIN CERTIFICATE-----
MIIEIzCCAwugAwIBAgIJALS5fyyelLn/MA0GCSqGSIb3DQEBCwUAMHMxCzAJBgNV
BAYTAlVTMRAwDgYDVQQIEwdHZW9yZ2lhMREwDwYDVQQHEwhOb3Jjcm9zczEaMBgG
A1UEChMRQUNJIFdvcmxkd2lkZSBJbmMxEjAQBgNVBAsTCWVjb21tZXJjZTEPMA0G
A1UEAxMGVVNDQTAxMB4XDTIwMDMyODA2MDYxOFoXDTIyMDMyODA2MDYxOFowbTEL
MAkGA1UEBhMCVVMxEDAOBgNVBAgTB0dlb3JnaWExGjAYBgNVBAoTEUFDSSBXb3Js
ZHdpZGUgSW5jMRIwEAYDVQQLEwllY29tbWVyY2UxHDAaBgNVBAMTE2FtZXJpY2Fu
ZWFnbGVkYXRhMjAwggEiMA0GCSqGSIb3DQEBAQUAA4IBDwAwggEKAoIBAQC/fTXB
c9TQ8sAnxDZSbFYUeXJkjK/k6WdiswH/ZJpaVqJXN8oyztwbYG2sTQXZJb4VY/3u
ccltsg/Gi4Ho55iKFDLvrtdFmF7UpuAs2/xhsw1K0A2XYGzJcECt6qeHJcBJ/g/M
vFmEI2kfCWmMv8Nyo4PK8QGnM+/9805JBi7EpK0sDI574H6hvhch/AqhfLticKyo
yBgEcwepKwGckdPFz8ZXJke4nI7SWqACv2GrMD2n0BNwqE+Mxd6fP4ussaHMlQYU
D/riSRWW+rGkO237261i5e1e3WhLJ9qDeDYN9JZGEv1TcjDADZesLvGVFBmonWSS
fctyrdGrD44pDtz9AgMBAAGjgb8wgbwwCQYDVR0TBAIwADAdBgNVHQ4EFgQUfrpo
pl/BwnHwJ5MLPPjcfs1q6BAwgY8GA1UdIwSBhzCBhKF3pHUwczELMAkGA1UEBhMC
VVMxEDAOBgNVBAgTB0dlb3JnaWExETAPBgNVBAcTCE5vcmNyb3NzMRowGAYDVQQK
ExFBQ0kgV29ybGR3aWRlIEluYzESMBAGA1UECxMJZWNvbW1lcmNlMQ8wDQYDVQQD
EwZVU0NBMDGCCQC0uX8snpS5OTANBgkqhkiG9w0BAQsFAAOCAQEADs89FKD46iIy
CllbIug4qPsE8U2z+kTkiSkcHRKxhqEkyOSa1CbQLNhTc4mu2C+5L4/y/GFfuBEt
h3mO6AZAm6fOUV7PZWily/KHUqkUGRDL50nV4ROxKpBVtgCVQrXSlGDCHJQ5moIB
nuCdH0IsQ6ssd+bBXQkZoIK6FXRxBEb/bWAz8eMfMlKEpEA5ppmxgG7yOIc4C2Ao
PS2JpuHa2CDsIMocJO6J0Zhfn8l4+vLAyHKaQSaxb1u/2OmyYtxHkrkEgSr3ANP0
zNU2nBFAg6ItapWgZJHz7PCiL+jLLCh17iVYywtk7Zz2OyAm6VcNecIudZzohfM8
ck+HFl6jBQ==
-----END CERTIFICATE-----
